target datalayout = "e-m:e-p270:32:32-p271:32:32-p272:64:64-i64:64-i128:128-f80:128-n8:16:32:64-S128"
target triple = "x86_64-pc-linux-gnu"

%struct.ossl_crmf_attributetypeandvalue_st = type { ptr, %union.anon.0 }
%union.anon.0 = type { ptr }

; Function Attrs: nounwind uwtable
define void @OSSL_CMP_ATAV_set0(ptr noundef %0, ptr noundef %1, ptr noundef %2) #0 {
  %4 = alloca ptr, align 8
  %5 = alloca ptr, align 8
  %6 = alloca ptr, align 8
  store ptr %0, ptr %4, align 8, !tbaa !87
  store ptr %1, ptr %5, align 8, !tbaa !50
  store ptr %2, ptr %6, align 8, !tbaa !52
  %7 = load ptr, ptr %5, align 8, !tbaa !50
  %8 = load ptr, ptr %4, align 8, !tbaa !87
  %9 = getelementptr inbounds nuw %struct.ossl_crmf_attributetypeandvalue_st, ptr %8, i32 0, i32 0
  store ptr %7, ptr %9, align 8, !tbaa !93
  %10 = load ptr, ptr %6, align 8, !tbaa !52
  %11 = load ptr, ptr %4, align 8, !tbaa !87
  %12 = getelementptr inbounds nuw %struct.ossl_crmf_attributetypeandvalue_st, ptr %11, i32 0, i32 1
  store ptr %10, ptr %12, align 8, !tbaa !56
  ret void
}

; Function Attrs: nounwind uwtable
define ptr @OSSL_CMP_ATAV_create(ptr noundef %0, ptr noundef %1) #0 {
  %3 = alloca ptr, align 8
  %4 = alloca ptr, align 8
  %5 = alloca ptr, align 8
  %6 = alloca ptr, align 8
  %7 = alloca i32, align 4
  store ptr %0, ptr %4, align 8, !tbaa !50
  store ptr %1, ptr %5, align 8, !tbaa !52
  call void @llvm.lifetime.start.p0(i64 8, ptr %6) #4
  %8 = call ptr @OSSL_CRMF_ATTRIBUTETYPEANDVALUE_new()
  store ptr %8, ptr %6, align 8, !tbaa !87
  %9 = icmp eq ptr %8, null
  br i1 %9, label %10, label %11

10:                                               ; preds = %2
  store ptr null, ptr %3, align 8
  store i32 1, ptr %7, align 4
  br label %16

11:                                               ; preds = %2
  %12 = load ptr, ptr %6, align 8, !tbaa !87
  %13 = load ptr, ptr %4, align 8, !tbaa !50
  %14 = load ptr, ptr %5, align 8, !tbaa !52
  call void @OSSL_CMP_ATAV_set0(ptr noundef %12, ptr noundef %13, ptr noundef %14)
  %15 = load ptr, ptr %6, align 8, !tbaa !87
  store ptr %15, ptr %3, align 8
  store i32 1, ptr %7, align 4
  br label %16

16:                                               ; preds = %11, %10
  call void @llvm.lifetime.end.p0(i64 8, ptr %6) #4
  %17 = load ptr, ptr %3, align 8
  ret ptr %17
}