; Function Attrs: nounwind uwtable
define ptr @OSSL_CMP_ATAV_create(ptr noundef %0, ptr noundef %1) local_unnamed_addr #1 {
  %3 = tail call ptr @OSSL_CRMF_ATTRIBUTETYPEANDVALUE_new() #6
  %4 = icmp eq ptr %3, null
  br i1 %4, label %7, label %5

5:                                                ; preds = %2
  store ptr %0, ptr %3, align 8, !tbaa !29
  %6 = getelementptr inbounds nuw i8, ptr %3, i64 8
  store ptr %1, ptr %6, align 8, !tbaa !9
  br label %7

7:                                                ; preds = %2, %5
  ret ptr %3
}